target datalayout = "e-m:e-p270:32:32-p271:32:32-p272:64:64-i64:64-i128:128-f80:128-n8:16:32:64-S128"
target triple = "x86_64-pc-linux-gnu"

%struct.job_record = type { i32, ptr, ptr, ptr, ptr, i16, i32, i32, i32, ptr, i32, ptr, ptr, i16, ptr, double, i64, ptr, ptr, ptr, ptr, ptr, ptr, i32, ptr, i32, i64, i64, i32, i32, ptr, i16, i64, i64, i8, i32, ptr, ptr, ptr, ptr, ptr, ptr, ptr, ptr, i32, ptr, ptr, i32, ptr, i32, ptr, i32, ptr, i32, ptr, ptr, ptr, ptr, ptr, ptr, i32, i16, i64, ptr, ptr, ptr, ptr, %struct.acct_policy_limit_set_t, i16, ptr, ptr, ptr, ptr, ptr, i32, ptr, ptr, ptr, ptr, ptr, i32, i32, ptr, ptr, ptr, i16, ptr, ptr, i8, ptr, ptr, i64, i64, i8, i32, i32, i8, i32, ptr, i32, i64, i32, ptr, ptr, ptr, i8, i16, i64, i32, ptr, ptr, ptr, ptr, ptr, i16, i32, ptr, ptr, ptr, ptr, i32, ptr, i32, i16, i64, ptr, i32, i32, ptr, i64, ptr, ptr, i64, i32, i32, i64, i32, i32, ptr, ptr, ptr, ptr, ptr, ptr, ptr, ptr, ptr, ptr, ptr, ptr, i32, ptr, i16, i16, i16, i16, ptr, i32, i32, i8, i64 }
%struct.acct_policy_limit_set_t = type { i16, i16, ptr }
%struct.node_record = type { ptr, ptr, i16, i64, i64, ptr, ptr, ptr, i16, ptr, i16, i16, i32, i32, i64, ptr, i16, i16, ptr, ptr, ptr, ptr, ptr, i64, i64, ptr, ptr, ptr, ptr, i32, ptr, ptr, i64, i64, i32, ptr, i64, ptr, i32, i16, ptr, ptr, i32, ptr, i32, i8, ptr, i32, i16, i16, ptr, i16, i64, i16, i64, ptr, i64, i32, i16, i64, i16, ptr, i16, i64, ptr, i64, i16, i32, i16, ptr, ptr, ptr, i16, i32, i16, i16, i32, ptr, i16, i32 }

@cloud_dns = external global i8, align 1
@cloud_node_bitmap = external global ptr, align 8
@.str.2 = private unnamed_addr constant [2 x i8] c",\00", align 1
@.str.3 = private unnamed_addr constant [11 x i8] c"%s:[%s]:%s\00", align 1

; Function Attrs: nounwind uwtable
define dso_local void @set_job_alias_list(ptr noundef %0) #0 {
  %2 = alloca ptr, align 8
  %3 = alloca ptr, align 8
  %4 = alloca i32, align 4
  %5 = alloca i32, align 4
  store ptr %0, ptr %2, align 8
  call void @llvm.lifetime.start.p0(i64 8, ptr %3) #8
  %6 = load ptr, ptr %2, align 8
  %7 = getelementptr inbounds nuw %struct.job_record, ptr %6, i32 0, i32 3
  call void @slurm_xfree(ptr noundef %7)
  %8 = load i8, ptr @cloud_dns, align 1, !range !12, !noundef !13
  %9 = trunc i8 %8 to i1
  br i1 %9, label %10, label %18

10:                                               ; preds = %1
  %11 = load ptr, ptr %2, align 8
  %12 = getelementptr inbounds nuw %struct.job_record, ptr %11, i32 0, i32 77
  %13 = load ptr, ptr %12, align 8
  %14 = load ptr, ptr @cloud_node_bitmap, align 8
  %15 = call i32 @bit_super_set(ptr noundef %13, ptr noundef %14)
  %16 = icmp ne i32 %15, 0
  br i1 %16, label %17, label %18

17:                                               ; preds = %10
  store i32 1, ptr %4, align 4
  br label %79

18:                                               ; preds = %10, %1
  call void @llvm.lifetime.start.p0(i64 4, ptr %5) #8
  store i32 0, ptr %5, align 4
  br label %19

19:                                               ; preds = %71, %18
  %20 = load ptr, ptr %2, align 8
  %21 = getelementptr inbounds nuw %struct.job_record, ptr %20, i32 0, i32 77
  %22 = load ptr, ptr %21, align 8
  %23 = call ptr @next_node_bitmap(ptr noundef %22, ptr noundef %5)
  store ptr %23, ptr %3, align 8
  %24 = icmp ne ptr %23, null
  br i1 %24, label %26, label %25

25:                                               ; preds = %19
  store i32 2, ptr %4, align 4
  call void @llvm.lifetime.end.p0(i64 4, ptr %5) #8
  br label %74

26:                                               ; preds = %19
  %27 = load ptr, ptr %3, align 8
  %28 = getelementptr inbounds nuw %struct.node_record, ptr %27, i32 0, i32 44
  %29 = load i32, ptr %28, align 8
  %30 = zext i32 %29 to i64
  %31 = and i64 %30, 524288
  %32 = icmp ne i64 %31, 0
  br i1 %32, label %50, label %33

33:                                               ; preds = %26
  %34 = load ptr, ptr %3, align 8
  %35 = getelementptr inbounds nuw %struct.node_record, ptr %34, i32 0, i32 44
  %36 = load i32, ptr %35, align 8
  %37 = zext i32 %36 to i64
  %38 = and i64 %37, 67108864
  %39 = icmp ne i64 %38, 0
  br i1 %39, label %50, label %40

40:                                               ; preds = %33
  %41 = load i8, ptr @cloud_dns, align 1, !range !12, !noundef !13
  %42 = trunc i8 %41 to i1
  br i1 %42, label %70, label %43

43:                                               ; preds = %40
  %44 = load ptr, ptr %3, align 8
  %45 = getelementptr inbounds nuw %struct.node_record, ptr %44, i32 0, i32 44
  %46 = load i32, ptr %45, align 8
  %47 = zext i32 %46 to i64
  %48 = and i64 %47, 128
  %49 = icmp ne i64 %48, 0
  br i1 %49, label %50, label %70

50:                                               ; preds = %43, %33, %26
  %51 = load ptr, ptr %2, align 8
  %52 = getelementptr inbounds nuw %struct.job_record, ptr %51, i32 0, i32 3
  %53 = load ptr, ptr %52, align 8
  %54 = icmp ne ptr %53, null
  br i1 %54, label %55, label %58

55:                                               ; preds = %50
  %56 = load ptr, ptr %2, align 8
  %57 = getelementptr inbounds nuw %struct.job_record, ptr %56, i32 0, i32 3
  call void @_xstrcat(ptr noundef %57, ptr noundef @.str.2)
  br label %58

58:                                               ; preds = %55, %50
  %59 = load ptr, ptr %2, align 8
  %60 = getelementptr inbounds nuw %struct.job_record, ptr %59, i32 0, i32 3
  %61 = load ptr, ptr %3, align 8
  %62 = getelementptr inbounds nuw %struct.node_record, ptr %61, i32 0, i32 37
  %63 = load ptr, ptr %62, align 8
  %64 = load ptr, ptr %3, align 8
  %65 = getelementptr inbounds nuw %struct.node_record, ptr %64, i32 0, i32 6
  %66 = load ptr, ptr %65, align 8
  %67 = load ptr, ptr %3, align 8
  %68 = getelementptr inbounds nuw %struct.node_record, ptr %67, i32 0, i32 40
  %69 = load ptr, ptr %68, align 8
  call void (ptr, ptr, ...) @_xstrfmtcat(ptr noundef %60, ptr noundef @.str.3, ptr noundef %63, ptr noundef %66, ptr noundef %69)
  br label %70

70:                                               ; preds = %58, %43, %40
  br label %71

71:                                               ; preds = %70
  %72 = load i32, ptr %5, align 4
  %73 = add nsw i32 %72, 1
  store i32 %73, ptr %5, align 4
  br label %19, !llvm.loop !14

74:                                               ; preds = %25
  %75 = load ptr, ptr %2, align 8
  %76 = load ptr, ptr %2, align 8
  %77 = getelementptr inbounds nuw %struct.job_record, ptr %76, i32 0, i32 84
  %78 = load ptr, ptr %77, align 8
  call void @set_job_node_addrs(ptr noundef %75, ptr noundef %78)
  store i32 0, ptr %4, align 4
  br label %79

79:                                               ; preds = %74, %17
  call void @llvm.lifetime.end.p0(i64 8, ptr %3) #8
  %80 = load i32, ptr %4, align 4
  switch i32 %80, label %82 [
    i32 0, label %81
    i32 1, label %81
  ]

81:                                               ; preds = %79, %79
  ret void

82:                                               ; preds = %79
  unreachable
}