; Function Attrs: nounwind uwtable
define dso_local void @set_job_alias_list(ptr noundef %0) local_unnamed_addr #0 {
  %2 = alloca i32, align 4
  %3 = getelementptr inbounds nuw i8, ptr %0, i64 24
  tail call void @slurm_xfree(ptr noundef nonnull %3) #14
  %4 = load i8, ptr @cloud_dns, align 1, !range !12, !noundef !13
  %5 = trunc nuw i8 %4 to i1
  br i1 %5, label %6, label %11

6:                                                ; preds = %1
  %7 = getelementptr inbounds nuw i8, ptr %0, i64 584
  %8 = load ptr, ptr %7, align 8
  %9 = load ptr, ptr @cloud_node_bitmap, align 8
  %10 = tail call i32 @bit_super_set(ptr noundef %8, ptr noundef %9) #14
  %.not = icmp eq i32 %10, 0
  br i1 %.not, label %11, label %41

11:                                               ; preds = %6, %1
  call void @llvm.lifetime.start.p0(i64 4, ptr nonnull %2) #14
  %12 = getelementptr inbounds nuw i8, ptr %0, i64 584
  store i32 0, ptr %2, align 4
  %13 = load ptr, ptr %12, align 8
  %14 = call ptr @next_node_bitmap(ptr noundef %13, ptr noundef nonnull %2) #14
  %.not1420 = icmp eq ptr %14, null
  br i1 %.not1420, label %._crit_edge, label %.lr.ph

._crit_edge:                                      ; preds = %36, %11
  call void @llvm.lifetime.end.p0(i64 4, ptr nonnull %2) #14
  %15 = getelementptr inbounds nuw i8, ptr %0, i64 632
  %16 = load ptr, ptr %15, align 8
  call void @set_job_node_addrs(ptr noundef nonnull %0, ptr noundef %16)
  br label %41

.lr.ph:                                           ; preds = %11, %36
  %17 = phi ptr [ %40, %36 ], [ %14, %11 ]
  %18 = getelementptr inbounds nuw i8, ptr %17, i64 320
  %19 = load i32, ptr %18, align 8
  %20 = zext i32 %19 to i64
  %21 = and i64 %20, 67633152
  %or.cond = icmp eq i64 %21, 0
  br i1 %or.cond, label %22, label %26

22:                                               ; preds = %.lr.ph
  %23 = load i8, ptr @cloud_dns, align 1, !range !12, !noundef !13
  %24 = trunc nuw i8 %23 to i1
  %25 = and i64 %20, 128
  %.not17 = icmp eq i64 %25, 0
  %or.cond19 = or i1 %.not17, %24
  br i1 %or.cond19, label %36, label %26

26:                                               ; preds = %22, %.lr.ph
  %27 = load ptr, ptr %3, align 8
  %.not18 = icmp eq ptr %27, null
  br i1 %.not18, label %29, label %28

28:                                               ; preds = %26
  call void @_xstrcat(ptr noundef nonnull %3, ptr noundef nonnull @.str.2) #14
  br label %29

29:                                               ; preds = %28, %26
  %30 = getelementptr inbounds nuw i8, ptr %17, i64 272
  %31 = load ptr, ptr %30, align 8
  %32 = getelementptr inbounds nuw i8, ptr %17, i64 48
  %33 = load ptr, ptr %32, align 8
  %34 = getelementptr inbounds nuw i8, ptr %17, i64 288
  %35 = load ptr, ptr %34, align 8
  call void (ptr, ptr, ...) @_xstrfmtcat(ptr noundef nonnull %3, ptr noundef nonnull @.str.3, ptr noundef %31, ptr noundef %33, ptr noundef %35) #14
  br label %36

36:                                               ; preds = %22, %29
  %37 = load i32, ptr %2, align 4
  %38 = add nsw i32 %37, 1
  store i32 %38, ptr %2, align 4
  %39 = load ptr, ptr %12, align 8
  %40 = call ptr @next_node_bitmap(ptr noundef %39, ptr noundef nonnull %2) #14
  %.not14 = icmp eq ptr %40, null
  br i1 %.not14, label %._crit_edge, label %.lr.ph, !llvm.loop !14

41:                                               ; preds = %6, %._crit_edge
  ret void
}